; Function Attrs: mustprogress uwtable
define void @_ZN3zmq12udp_engine_t5errorENS_8i_engine14error_reason_tE(ptr noundef nonnull align 8 dereferenceable(17880) %0, i32 noundef %1) local_unnamed_addr #0 align 2 {
  %3 = getelementptr inbounds nuw i8, ptr %0, i64 104
  %4 = load ptr, ptr %3, align 8, !tbaa !109
  %.not = icmp eq ptr %4, null
  br i1 %.not, label %5, label %10, !prof !72

5:                                                ; preds = %2
  %6 = load ptr, ptr @stderr, align 8, !tbaa !105
  %7 = tail call i32 (ptr, ptr, ...) @fprintf(ptr noundef %6, ptr noundef nonnull @.str, ptr noundef nonnull @.str.9, ptr noundef nonnull @.str.2, i32 noundef 319) #27
  %8 = load ptr, ptr @stderr, align 8, !tbaa !105
  %9 = tail call i32 @fflush(ptr noundef %8)
  tail call void @_ZN3zmq9zmq_abortEPKc(ptr noundef nonnull @.str.9)
  %.pre = load ptr, ptr %3, align 8, !tbaa !109
  br label %10

10:                                               ; preds = %2, %5
  %11 = phi ptr [ %4, %2 ], [ %.pre, %5 ]
  tail call void @_ZN3zmq14session_base_t12engine_errorEbNS_8i_engine14error_reason_tE(ptr noundef nonnull align 8 dereferenceable(1624) %11, i1 noundef zeroext false, i32 noundef %1)
  %12 = getelementptr inbounds nuw i8, ptr %0, i64 96
  %13 = load i8, ptr %12, align 8, !tbaa !18, !range !97, !noundef !98
  %14 = trunc nuw i8 %13 to i1
  br i1 %14, label %_ZN3zmq12udp_engine_t9terminateEv.exit, label %15, !prof !107

15:                                               ; preds = %10
  %16 = load ptr, ptr @stderr, align 8, !tbaa !105
  %17 = tail call i32 (ptr, ptr, ...) @fprintf(ptr noundef %16, ptr noundef nonnull @.str, ptr noundef nonnull @.str.10, ptr noundef nonnull @.str.2, i32 noundef 326) #27
  %18 = load ptr, ptr @stderr, align 8, !tbaa !105
  %19 = tail call i32 @fflush(ptr noundef %18)
  tail call void @_ZN3zmq9zmq_abortEPKc(ptr noundef nonnull @.str.10)
  br label %_ZN3zmq12udp_engine_t9terminateEv.exit

_ZN3zmq12udp_engine_t9terminateEv.exit:           ; preds = %10, %15
  store i8 0, ptr %12, align 8, !tbaa !18
  %20 = getelementptr inbounds nuw i8, ptr %0, i64 112
  %21 = load ptr, ptr %20, align 8, !tbaa !110
  tail call void @_ZN3zmq11io_object_t5rm_fdEPv(ptr noundef nonnull align 8 dereferenceable(17880) %0, ptr noundef %21)
  tail call void @_ZN3zmq11io_object_t6unplugEv(ptr noundef nonnull align 8 dereferenceable(17880) %0)
  tail call void @_ZN3zmq12udp_engine_tD1Ev(ptr noundef nonnull align 8 dereferenceable(17880) %0) #23
  tail call void @_ZdlPv(ptr noundef nonnull align 8 dereferenceable(17880) %0) #26
  ret void
}